ccopy_reg
_reconstructor
p0
(cserver
InstaModel
p1
c__builtin__
object
p2
Ntp3
Rp4
(dp5
S'extractor'
p6
g0
(cextractor
TextFeatureExtractor
p7
g2
Ntp8
Rp9
(dp10
S'_tfidf'
p11
g0
(csklearn.feature_extraction.text
TfidfVectorizer
p12
g2
Ntp13
Rp14
(dp15
S'decode_error'
p16
Vstrict
p17
sS'lowercase'
p18
I01
sS'stop_words'
p19
S'english'
p20
sS'vocabulary'
p21
NsS'tokenizer'
p22
NsS'encoding'
p23
Vutf-8
p24
sS'token_pattern'
p25
V(?u)\u005cb\u005cw\u005cw+\u005cb
p26
sS'max_df'
p27
F1.0
sS'fixed_vocabulary_'
p28
I00
sS'analyzer'
p29
Vword
p30
sS'vocabulary_'
p31
(dp32
Vhappens
p33
cnumpy.core.multiarray
scalar
p34
(cnumpy
dtype
p35
(S'i8'
p36
I0
I1
tp37
Rp38
(I3
S'<'
p39
NNNI-1
I-1
I0
tp40
bS'\x02\x00\x00\x00\x00\x00\x00\x00'
p41
tp42
Rp43
sVselfies
p44
g34
(g38
S'\x04\x00\x00\x00\x00\x00\x00\x00'
p45
tp46
Rp47
sVhappens adictive
p48
g34
(g38
S'\x03\x00\x00\x00\x00\x00\x00\x00'
p49
tp50
Rp51
sVadictive
p52
g34
(g38
S'\x00\x00\x00\x00\x00\x00\x00\x00'
p53
tp54
Rp55
sVadictive selfies
p56
g34
(g38
S'\x01\x00\x00\x00\x00\x00\x00\x00'
p57
tp58
Rp59
ssS'binary'
p60
I00
sS'ngram_range'
p61
(lp62
I1
aI2
asS'preprocessor'
p63
NsS'min_df'
p64
I1
sS'max_features'
p65
NsS'input'
p66
Vcontent
p67
sg11
g0
(csklearn.feature_extraction.text
TfidfTransformer
p68
g2
Ntp69
Rp70
(dp71
S'use_idf'
p72
I01
sS'smooth_idf'
p73
I01
sS'sublinear_tf'
p74
I00
sS'norm'
p75
S'l2'
p76
sS'_idf_diag'
p77
g0
(cscipy.sparse.dia
dia_matrix
p78
g2
Ntp79
Rp80
(dp81
S'data'
p82
cnumpy.core.multiarray
_reconstruct
p83
(cnumpy
ndarray
p84
(I0
tp85
S'b'
p86
tp87
Rp88
(I1
(I1
I5
tp89
g35
(S'f8'
p90
I0
I1
tp91
Rp92
(I3
S'<'
p93
NNNI-1
I-1
I0
tp94
bI00
S'<ppx \xa9\xfe?<ppx \xa9\xfe?<ppx \xa9\xfe?<ppx \xa9\xfe?<ppx \xa9\xfe?'
p95
tp96
bsS'maxprint'
p97
I50
sS'_shape'
p98
(I5
I5
tp99
sS'offsets'
p100
g83
(g84
(I0
tp101
g86
tp102
Rp103
(I1
(I1
tp104
g35
(S'i4'
p105
I0
I1
tp106
Rp107
(I3
S'<'
p108
NNNI-1
I-1
I0
tp109
bI00
S'\x00\x00\x00\x00'
p110
tp111
bsS'format'
p112
S'dia'
p113
sbsbsS'dtype'
p114
cnumpy
int64
p115
sS'stop_words_'
p116
c__builtin__
set
p117
((lp118
tp119
Rp120
sS'strip_accents'
p121
NsbsbsS'rm'
p122
g0
(ccluster
PModel
p123
g2
Ntp124
Rp125
(dp126
S'_pm'
p127
g0
(csklearn.neighbors.classification
KNeighborsClassifier
p128
g2
Ntp129
Rp130
(dp131
S'n_neighbors'
p132
I40
sS'n_jobs'
p133
I1
sS'_y'
p134
g83
(g84
(I0
tp135
g86
tp136
Rp137
(I1
(I4
tp138
g38
I00
S'\x03\x00\x00\x00\x00\x00\x00\x00\x02\x00\x00\x00\x00\x00\x00\x00\x00\x00\x00\x00\x00\x00\x00\x00\x01\x00\x00\x00\x00\x00\x00\x00'
p139
tp140
bsS'algorithm'
p141
S'auto'
p142
sS'metric'
p143
S'minkowski'
p144
sS'classes_'
p145
g83
(g84
(I0
tp146
g86
tp147
Rp148
(I1
(I4
tp149
g92
I00
S'\x00\x00\x00\x00\x00\xb0\x89@\x00\x00\x00\x00\x00\x84\x92@\x00\x00\x00\x00\x00\xc6\xa6@\x00\x00\x00\x00\x00\xd4\xac@'
p150
tp151
bsS'metric_params'
p152
NsS'p'
p153
I2
sS'effective_metric_params_'
p154
(dp155
sS'radius'
p156
NsS'leaf_size'
p157
I30
sS'_fit_method'
p158
S'brute'
p159
sS'weights'
p160
S'uniform'
p161
sS'_tree'
p162
NsS'effective_metric_'
p163
S'euclidean'
p164
sS'outputs_2d_'
p165
I00
sS'_fit_X'
p166
g0
(cscipy.sparse.csr
csr_matrix
p167
g2
Ntp168
Rp169
(dp170
g112
S'csr'
p171
sg98
(I4
I5
tp172
sS'indptr'
p173
g83
(g84
(I0
tp174
g86
tp175
Rp176
(I1
(I5
tp177
g107
I00
S'\x00\x00\x00\x00\x00\x00\x00\x00\x00\x00\x00\x00\x05\x00\x00\x00\x05\x00\x00\x00'
p178
tp179
bsS'indices'
p180
g83
(g84
(I0
tp181
g86
tp182
Rp183
(I1
(I5
tp184
g107
I00
S'\x01\x00\x00\x00\x03\x00\x00\x00\x04\x00\x00\x00\x00\x00\x00\x00\x02\x00\x00\x00'
p185
tp186
bsg97
I50
sg82
g83
(g84
(I0
tp187
g86
tp188
Rp189
(I1
(I5
tp190
g92
I00
S'\xd9\xed\xbf\xc5%\x9f\xdc?\xd9\xed\xbf\xc5%\x9f\xdc?\xd9\xed\xbf\xc5%\x9f\xdc?\xd9\xed\xbf\xc5%\x9f\xdc?\xd9\xed\xbf\xc5%\x9f\xdc?'
p191
tp192
bsbsbsS'k'
p193
I40
sS'_dict'
p194
g83
(g84
(I0
tp195
g86
tp196
Rp197
(I1
(I4
tp198
g92
I00
S'\x00\x00\x00\x00\x00\xd4\xac@\x00\x00\x00\x00\x00\xc6\xa6@\x00\x00\x00\x00\x00\xb0\x89@\x00\x00\x00\x00\x00\x84\x92@'
p199
tp200
bsbsb.